target datalayout = "e-m:e-p270:32:32-p271:32:32-p272:64:64-i64:64-i128:128-f80:128-n8:16:32:64-S128"
target triple = "x86_64-pc-linux-gnu"

@.str.2 = private unnamed_addr constant [15 x i8] c"fetch_config.c\00", align 1
@.str.10 = private unnamed_addr constant [28 x i8] c"%s: failed memfd_create: %m\00", align 1
@__func__.dump_to_memfd = private unnamed_addr constant [14 x i8] c"dump_to_memfd\00", align 1
@.str.11 = private unnamed_addr constant [16 x i8] c"/proc/%lu/fd/%d\00", align 1
@.str.12 = private unnamed_addr constant [45 x i8] c"%s:%d: %s: safe_write (%zu of %d) failed: %m\00", align 1
@.str.13 = private unnamed_addr constant [48 x i8] c"%s:%d: %s: safe_write (%zu of %d) partial write\00", align 1
@.str.14 = private unnamed_addr constant [52 x i8] c"%s: could not write conf file, likely out of memory\00", align 1

; Function Attrs: nounwind uwtable
define dso_local i32 @dump_to_memfd(ptr noundef %0, ptr noundef %1, ptr noundef %2) #0 {
  %4 = alloca i32, align 4
  %5 = alloca ptr, align 8
  %6 = alloca ptr, align 8
  %7 = alloca ptr, align 8
  %8 = alloca i32, align 4
  %9 = alloca i32, align 4
  %10 = alloca i64, align 8
  %11 = alloca ptr, align 8
  %12 = alloca i32, align 4
  %13 = alloca i32, align 4
  store ptr %0, ptr %5, align 8
  store ptr %1, ptr %6, align 8
  store ptr %2, ptr %7, align 8
  call void @llvm.lifetime.start.p0(i64 4, ptr %8) #9
  %14 = call i32 @getpid() #9
  store i32 %14, ptr %8, align 4
  call void @llvm.lifetime.start.p0(i64 4, ptr %9) #9
  %15 = load ptr, ptr %5, align 8
  %16 = call i32 @memfd_create(ptr noundef %15, i32 noundef 1) #9
  store i32 %16, ptr %9, align 4
  %17 = load i32, ptr %9, align 4
  %18 = icmp slt i32 %17, 0
  br i1 %18, label %19, label %20

19:                                               ; preds = %3
  call void (ptr, ...) @fatal(ptr noundef @.str.10, ptr noundef @__func__.dump_to_memfd) #11
  unreachable

20:                                               ; preds = %3
  %21 = load ptr, ptr %7, align 8
  call void @slurm_xfree(ptr noundef %21)
  %22 = load ptr, ptr %7, align 8
  %23 = load i32, ptr %8, align 4
  %24 = sext i32 %23 to i64
  %25 = load i32, ptr %9, align 4
  call void (ptr, ptr, ...) @_xstrfmtcat(ptr noundef %22, ptr noundef @.str.11, i64 noundef %24, i32 noundef %25)
  %26 = load ptr, ptr %6, align 8
  %27 = icmp ne ptr %26, null
  br i1 %27, label %28, label %102

28:                                               ; preds = %20
  br label %29

29:                                               ; preds = %28
  call void @llvm.lifetime.start.p0(i64 8, ptr %10) #9
  %30 = load ptr, ptr %6, align 8
  %31 = call i64 @strlen(ptr noundef %30) #10
  store i64 %31, ptr %10, align 8
  call void @llvm.lifetime.start.p0(i64 8, ptr %11) #9
  %32 = load ptr, ptr %6, align 8
  store ptr %32, ptr %11, align 8
  call void @llvm.lifetime.start.p0(i64 4, ptr %12) #9
  br label %33

33:                                               ; preds = %95, %52, %29
  %34 = load i64, ptr %10, align 8
  %35 = icmp ugt i64 %34, 0
  br i1 %35, label %36, label %96

36:                                               ; preds = %33
  %37 = load i32, ptr %9, align 4
  %38 = load ptr, ptr %11, align 8
  %39 = load i64, ptr %10, align 8
  %40 = call i64 @write(i32 noundef %37, ptr noundef %38, i64 noundef %39)
  %41 = trunc i64 %40 to i32
  store i32 %41, ptr %12, align 4
  %42 = load i32, ptr %12, align 4
  %43 = icmp slt i32 %42, 0
  br i1 %43, label %44, label %68

44:                                               ; preds = %36
  %45 = call ptr @__errno_location() #12
  %46 = load i32, ptr %45, align 4
  %47 = icmp eq i32 %46, 11
  br i1 %47, label %52, label %48

48:                                               ; preds = %44
  %49 = call ptr @__errno_location() #12
  %50 = load i32, ptr %49, align 4
  %51 = icmp eq i32 %50, 4
  br i1 %51, label %52, label %53

52:                                               ; preds = %48, %44
  br label %33, !llvm.loop !18

53:                                               ; preds = %48
  br label %54

54:                                               ; preds = %53
  br label %55

55:                                               ; preds = %54
  %56 = call i32 @get_log_level()
  %57 = icmp sge i32 %56, 5
  br i1 %57, label %58, label %63

58:                                               ; preds = %55
  %59 = load i64, ptr %10, align 8
  %60 = load ptr, ptr %6, align 8
  %61 = call i64 @strlen(ptr noundef %60) #10
  %62 = trunc i64 %61 to i32
  call void (i32, ptr, ...) @log_var(i32 noundef 5, ptr noundef @.str.12, ptr noundef @.str.2, i32 noundef 327, ptr noundef @__func__.dump_to_memfd, i64 noundef %59, i32 noundef %62)
  br label %63

63:                                               ; preds = %58, %55
  br label %64

64:                                               ; preds = %63
  br label %65

65:                                               ; preds = %64
  br label %66

66:                                               ; preds = %65
  br label %67

67:                                               ; preds = %66
  store i32 10, ptr %13, align 4
  br label %97

68:                                               ; preds = %36
  %69 = load i32, ptr %12, align 4
  %70 = load ptr, ptr %11, align 8
  %71 = sext i32 %69 to i64
  %72 = getelementptr inbounds i8, ptr %70, i64 %71
  store ptr %72, ptr %11, align 8
  %73 = load i32, ptr %12, align 4
  %74 = sext i32 %73 to i64
  %75 = load i64, ptr %10, align 8
  %76 = sub i64 %75, %74
  store i64 %76, ptr %10, align 8
  %77 = load i64, ptr %10, align 8
  %78 = icmp ugt i64 %77, 0
  br i1 %78, label %79, label %94

79:                                               ; preds = %68
  br label %80

80:                                               ; preds = %79
  br label %81

81:                                               ; preds = %80
  %82 = call i32 @get_log_level()
  %83 = icmp sge i32 %82, 7
  br i1 %83, label %84, label %89

84:                                               ; preds = %81
  %85 = load i64, ptr %10, align 8
  %86 = load ptr, ptr %6, align 8
  %87 = call i64 @strlen(ptr noundef %86) #10
  %88 = trunc i64 %87 to i32
  call void (i32, ptr, ...) @log_var(i32 noundef 7, ptr noundef @.str.13, ptr noundef @.str.2, i32 noundef 327, ptr noundef @__func__.dump_to_memfd, i64 noundef %85, i32 noundef %88)
  br label %89

89:                                               ; preds = %84, %81
  br label %90

90:                                               ; preds = %89
  br label %91

91:                                               ; preds = %90
  br label %92

92:                                               ; preds = %91
  br label %93

93:                                               ; preds = %92
  br label %94

94:                                               ; preds = %93, %68
  br label %95

95:                                               ; preds = %94
  br label %33, !llvm.loop !18

96:                                               ; preds = %33
  store i32 0, ptr %13, align 4
  br label %97

97:                                               ; preds = %67, %96
  call void @llvm.lifetime.end.p0(i64 4, ptr %12) #9
  call void @llvm.lifetime.end.p0(i64 8, ptr %11) #9
  call void @llvm.lifetime.end.p0(i64 8, ptr %10) #9
  %98 = load i32, ptr %13, align 4
  switch i32 %98, label %105 [
    i32 0, label %99
    i32 10, label %104
  ]

99:                                               ; preds = %97
  br label %100

100:                                              ; preds = %99
  br label %101

101:                                              ; preds = %100
  br label %102

102:                                              ; preds = %101, %20
  %103 = load i32, ptr %9, align 4
  store i32 %103, ptr %4, align 4
  store i32 1, ptr %13, align 4
  br label %105

104:                                              ; preds = %97
  call void (ptr, ...) @fatal(ptr noundef @.str.14, ptr noundef @__func__.dump_to_memfd) #11
  unreachable

105:                                              ; preds = %102, %97
  call void @llvm.lifetime.end.p0(i64 4, ptr %9) #9
  call void @llvm.lifetime.end.p0(i64 4, ptr %8) #9
  %106 = load i32, ptr %4, align 4
  ret i32 %106
}