; Function Attrs: nounwind uwtable
define dso_local range(i32 0, -2147483648) i32 @dump_to_memfd(ptr noundef %0, ptr noundef readonly captures(address_is_null) %1, ptr noundef %2) local_unnamed_addr #0 {
  %4 = tail call i32 @getpid() #12
  %5 = tail call i32 @memfd_create(ptr noundef %0, i32 noundef 1) #12
  %6 = icmp slt i32 %5, 0
  br i1 %6, label %7, label %8

7:                                                ; preds = %3
  tail call void (ptr, ...) @fatal(ptr noundef nonnull @.str.10, ptr noundef nonnull @__func__.dump_to_memfd) #15
  unreachable

8:                                                ; preds = %3
  tail call void @slurm_xfree(ptr noundef %2) #12
  %9 = sext i32 %4 to i64
  tail call void (ptr, ptr, ...) @_xstrfmtcat(ptr noundef %2, ptr noundef nonnull @.str.11, i64 noundef %9, i32 noundef %5) #12
  %.not = icmp eq ptr %1, null
  br i1 %.not, label %.loopexit, label %10

10:                                               ; preds = %8
  %11 = tail call i64 @strlen(ptr noundef nonnull dereferenceable(1) %1) #13
  %.not3348 = icmp eq i64 %11, 0
  br i1 %.not3348, label %.loopexit, label %.lr.ph.split

.lr.ph.split:                                     ; preds = %10, %.lr.ph.split.backedge
  %.026.ph51 = phi ptr [ %26, %.lr.ph.split.backedge ], [ %1, %10 ]
  %.027.ph49 = phi i64 [ %27, %.lr.ph.split.backedge ], [ %11, %10 ]
  %12 = tail call i64 @write(i32 noundef %5, ptr noundef %.026.ph51, i64 noundef %.027.ph49) #12
  %13 = and i64 %12, 2147483648
  %.not3446 = icmp eq i64 %13, 0
  br i1 %.not3446, label %.split.us, label %.lr.ph47

.lr.ph47:                                         ; preds = %.lr.ph.split
  %14 = tail call ptr @__errno_location() #14
  br label %15

15:                                               ; preds = %.lr.ph47, %17
  %16 = load i32, ptr %14, align 4
  switch i32 %16, label %.split41.us [
    i32 11, label %17
    i32 4, label %17
  ]

17:                                               ; preds = %15, %15
  %18 = tail call i64 @write(i32 noundef %5, ptr noundef %.026.ph51, i64 noundef %.027.ph49) #12
  %19 = and i64 %18, 2147483648
  %.not34 = icmp eq i64 %19, 0
  br i1 %.not34, label %.split.us, label %15

.split41.us:                                      ; preds = %15
  %20 = tail call i32 @get_log_level() #12
  %21 = icmp sgt i32 %20, 4
  br i1 %21, label %22, label %34

22:                                               ; preds = %.split41.us
  %23 = tail call i64 @strlen(ptr noundef nonnull dereferenceable(1) %1) #13
  %24 = trunc i64 %23 to i32
  tail call void (i32, ptr, ...) @log_var(i32 noundef 5, ptr noundef nonnull @.str.12, ptr noundef nonnull @.str.2, i32 noundef 327, ptr noundef nonnull @__func__.dump_to_memfd, i64 noundef %.027.ph49, i32 noundef %24) #12
  br label %34

.split.us:                                        ; preds = %17, %.lr.ph.split
  %.us-phi = phi i64 [ %12, %.lr.ph.split ], [ %18, %17 ]
  %25 = and i64 %.us-phi, 2147483647
  %26 = getelementptr inbounds nuw i8, ptr %.026.ph51, i64 %25
  %27 = sub i64 %.027.ph49, %25
  %.not35 = icmp eq i64 %27, 0
  br i1 %.not35, label %.loopexit, label %28

28:                                               ; preds = %.split.us
  %29 = tail call i32 @get_log_level() #12
  %30 = icmp sgt i32 %29, 6
  br i1 %30, label %31, label %.lr.ph.split.backedge

31:                                               ; preds = %28
  %32 = tail call i64 @strlen(ptr noundef nonnull dereferenceable(1) %1) #13
  %33 = trunc i64 %32 to i32
  tail call void (i32, ptr, ...) @log_var(i32 noundef 7, ptr noundef nonnull @.str.13, ptr noundef nonnull @.str.2, i32 noundef 327, ptr noundef nonnull @__func__.dump_to_memfd, i64 noundef %27, i32 noundef %33) #12
  br label %.lr.ph.split.backedge

.lr.ph.split.backedge:                            ; preds = %31, %28
  br label %.lr.ph.split, !llvm.loop !18

34:                                               ; preds = %22, %.split41.us
  tail call void (ptr, ...) @fatal(ptr noundef nonnull @.str.14, ptr noundef nonnull @__func__.dump_to_memfd) #15
  unreachable

.loopexit:                                        ; preds = %.split.us, %10, %8
  ret i32 %5
}